; Function Attrs: mustprogress nounwind uwtable
define dso_local noundef zeroext i1 @_ZN18cmCTestTestHandler23SetTestOutputTruncationERKNSt7__cxx1112basic_stringIcSt11char_traitsIcESaIcEEE(ptr nocapture noundef nonnull writeonly align 8 dereferenceable(4416) %0, ptr noundef nonnull align 8 dereferenceable(32) %1) local_unnamed_addr #4 align 2 {
  %3 = tail call noundef i32 @_ZNKSt7__cxx1112basic_stringIcSt11char_traitsIcESaIcEE7compareEPKc(ptr noundef nonnull align 8 dereferenceable(32) %1, ptr noundef nonnull @.str.193) #25
  %4 = icmp eq i32 %3, 0
  br i1 %4, label %.sink.split, label %5

5:                                                ; preds = %2
  %6 = tail call noundef i32 @_ZNKSt7__cxx1112basic_stringIcSt11char_traitsIcESaIcEE7compareEPKc(ptr noundef nonnull align 8 dereferenceable(32) %1, ptr noundef nonnull @.str.194) #25
  %7 = icmp eq i32 %6, 0
  br i1 %7, label %.sink.split, label %8

8:                                                ; preds = %5
  %9 = tail call noundef i32 @_ZNKSt7__cxx1112basic_stringIcSt11char_traitsIcESaIcEE7compareEPKc(ptr noundef nonnull align 8 dereferenceable(32) %1, ptr noundef nonnull @.str.195) #25
  %10 = icmp eq i32 %9, 0
  br i1 %10, label %.sink.split, label %12

.sink.split:                                      ; preds = %8, %5, %2
  %.sink = phi i32 [ 0, %2 ], [ 1, %5 ], [ 2, %8 ]
  %11 = getelementptr inbounds i8, ptr %0, i64 436
  store i32 %.sink, ptr %11, align 4
  br label %12

12:                                               ; preds = %.sink.split, %8
  %.0 = phi i1 [ false, %8 ], [ true, %.sink.split ]
  ret i1 %.0
}